target datalayout = "e-m:e-p270:32:32-p271:32:32-p272:64:64-i64:64-i128:128-f80:128-n8:16:32:64-S128"
target triple = "x86_64-pc-linux-gnu"

%"class.google::LogMessageFatal" = type { %"class.google::LogMessage" }
%"class.google::LogMessage" = type { ptr, ptr, %"struct.google::LogMessageTime" }
%"struct.google::LogMessageTime" = type { %struct.tm, i64, i32, i64 }
%struct.tm = type { i32, i32, i32, i32, i32, i32, i32, i32, i32, i64, ptr }
%"class.google::LogMessageVoidify" = type { i8 }
%"class.ceres::internal::CudaVector" = type { i32, ptr, %"class.ceres::internal::CudaBuffer", ptr }
%"class.ceres::internal::CudaBuffer" = type { ptr, i64, ptr }

@.str.3 = private unnamed_addr constant [126 x i8] c"generated/home/dtcxzyw/WorkSpace/Projects/compilers/llvm-opt-benchmark/bench/ceres/ceres-solver/internal/ceres/cuda_vector.cc\00", align 1
@.str.11 = private unnamed_addr constant [28 x i8] c"Check failed: x != nullptr \00", align 1

; Function Attrs: mustprogress nounwind uwtable
define linkonce_odr hidden void @_ZN6google17LogMessageVoidifyanERSo(ptr noundef nonnull align 1 dereferenceable(1) %0, ptr noundef nonnull align 8 dereferenceable(8) %1) #1 comdat align 2 {
  %3 = alloca ptr, align 8
  %4 = alloca ptr, align 8
  store ptr %0, ptr %3, align 8
  store ptr %1, ptr %4, align 8
  ret void
}

; Function Attrs: mustprogress nounwind uwtable
define linkonce_odr hidden void @_ZN6google17LogMessageVoidifyC2Ev(ptr noundef nonnull align 1 dereferenceable(1) %0) unnamed_addr #1 comdat align 2 {
  %2 = alloca ptr, align 8
  store ptr %0, ptr %2, align 8
  ret void
}

; Function Attrs: mustprogress uwtable
define hidden void @_ZNK5ceres8internal10CudaVector6CopyToEPd(ptr noundef nonnull align 8 dereferenceable(48) %0, ptr noundef %1) #2 align 2 personality ptr @__gxx_personality_v0 {
  %3 = alloca ptr, align 8
  %4 = alloca ptr, align 8
  %5 = alloca %"class.google::LogMessageVoidify", align 1
  %6 = alloca %"class.google::LogMessageFatal", align 8
  %7 = alloca i1, align 1
  %8 = alloca ptr, align 8
  %9 = alloca i32, align 4
  store ptr %0, ptr %3, align 8
  store ptr %1, ptr %4, align 8
  %10 = load ptr, ptr %3, align 8
  %11 = load ptr, ptr %4, align 8
  %12 = icmp ne ptr %11, null
  %13 = xor i1 %12, true
  store i1 false, ptr %7, align 1
  br i1 %13, label %15, label %14

14:                                               ; preds = %2
  br label %21

15:                                               ; preds = %2
  call void @_ZN6google17LogMessageVoidifyC2Ev(ptr noundef nonnull align 1 dereferenceable(1) %5)
  call void @_ZN6google15LogMessageFatalC1EPKci(ptr noundef nonnull align 8 dereferenceable(96) %6, ptr noundef @.str.3, i32 noundef 135)
  store i1 true, ptr %7, align 1
  %16 = invoke noundef nonnull align 8 dereferenceable(8) ptr @_ZN6google10LogMessage6streamEv(ptr noundef nonnull align 8 dereferenceable(96) %6)
          to label %17 unwind label %24

17:                                               ; preds = %15
  %18 = invoke noundef nonnull align 8 dereferenceable(8) ptr @_ZStlsISt11char_traitsIcEERSt13basic_ostreamIcT_ES5_PKc(ptr noundef nonnull align 8 dereferenceable(8) %16, ptr noundef @.str.11)
          to label %19 unwind label %24

19:                                               ; preds = %17
  invoke void @_ZN6google17LogMessageVoidifyanERSo(ptr noundef nonnull align 1 dereferenceable(1) %5, ptr noundef nonnull align 8 dereferenceable(8) %18)
          to label %20 unwind label %24

20:                                               ; preds = %19
  br label %21

21:                                               ; preds = %20, %14
  %22 = load i1, ptr %7, align 1
  br i1 %22, label %23, label %30

23:                                               ; preds = %21
  call void @_ZN6google15LogMessageFatalD1Ev(ptr noundef nonnull align 8 dereferenceable(96) %6) #8
  unreachable

24:                                               ; preds = %19, %17, %15
  %25 = landingpad { ptr, i32 }
          cleanup
  %26 = extractvalue { ptr, i32 } %25, 0
  store ptr %26, ptr %8, align 8
  %27 = extractvalue { ptr, i32 } %25, 1
  store i32 %27, ptr %9, align 4
  %28 = load i1, ptr %7, align 1
  br i1 %28, label %36, label %38

29:                                               ; No predecessors!
  br label %30

30:                                               ; preds = %29, %21
  %31 = getelementptr inbounds %"class.ceres::internal::CudaVector", ptr %10, i32 0, i32 2
  %32 = load ptr, ptr %4, align 8
  %33 = getelementptr inbounds %"class.ceres::internal::CudaVector", ptr %10, i32 0, i32 0
  %34 = load i32, ptr %33, align 8
  %35 = sext i32 %34 to i64
  call void @_ZNK5ceres8internal10CudaBufferIdE9CopyToCpuEPdm(ptr noundef nonnull align 8 dereferenceable(24) %31, ptr noundef %32, i64 noundef %35)
  ret void

36:                                               ; preds = %24
  call void @_ZN6google15LogMessageFatalD1Ev(ptr noundef nonnull align 8 dereferenceable(96) %6) #8
  unreachable

37:                                               ; No predecessors!
  br label %38

38:                                               ; preds = %37, %24
  br label %39

39:                                               ; preds = %38
  %40 = load ptr, ptr %8, align 8
  %41 = load i32, ptr %9, align 4
  %42 = insertvalue { ptr, i32 } poison, ptr %40, 0
  %43 = insertvalue { ptr, i32 } %42, i32 %41, 1
  resume { ptr, i32 } %43
}